; ModuleID = 'source-C-CXX/51/4371.c'
source_filename = "source-C-CXX/51/4371.c"
target datalayout = "e-m:e-p270:32:32-p271:32:32-p272:64:64-i64:64-f80:128-n8:16:32:64-S128"
target triple = "x86_64-pc-linux-gnu"

@.str = private unnamed_addr constant [6 x i8] c"%d %d\00", align 1
@.str.1 = private unnamed_addr constant [3 x i8] c"%d\00", align 1
@.str.2 = private unnamed_addr constant [4 x i8] c"%d \00", align 1
@.str.3 = private unnamed_addr constant [4 x i8] c" %d\00", align 1

; Function Attrs: nofree nounwind sspstrong uwtable
define dso_local i32 @main() local_unnamed_addr #0 {
  %1 = alloca i32, align 4
  %2 = alloca i32, align 4
  %3 = alloca [10000 x i32], align 16
  %4 = bitcast i32* %1 to i8*
  call void @llvm.lifetime.start.p0i8(i64 4, i8* nonnull %4) #3
  %5 = bitcast i32* %2 to i8*
  call void @llvm.lifetime.start.p0i8(i64 4, i8* nonnull %5) #3
  %6 = bitcast [10000 x i32]* %3 to i8*
  call void @llvm.lifetime.start.p0i8(i64 40000, i8* nonnull %6) #3
  %7 = call i32 (i8*, ...) @__isoc99_scanf(i8* getelementptr inbounds ([6 x i8], [6 x i8]* @.str, i64 0, i64 0), i32* nonnull %1, i32* nonnull %2)
  %8 = load i32, i32* %1, align 4, !tbaa !5
  %9 = icmp slt i32 %8, 1
  br i1 %9, label %18, label %10

10:                                               ; preds = %0, %10
  %11 = phi i64 [ %14, %10 ], [ 1, %0 ]
  %12 = getelementptr inbounds [10000 x i32], [10000 x i32]* %3, i64 0, i64 %11
  %13 = call i32 (i8*, ...) @__isoc99_scanf(i8* getelementptr inbounds ([3 x i8], [3 x i8]* @.str.1, i64 0, i64 0), i32* nonnull %12)
  %14 = add nuw nsw i64 %11, 1
  %15 = load i32, i32* %1, align 4, !tbaa !5
  %16 = sext i32 %15 to i64
  %17 = icmp slt i64 %11, %16
  br i1 %17, label %10, label %18, !llvm.loop !9

18:                                               ; preds = %10, %0
  %19 = phi i32 [ %8, %0 ], [ %15, %10 ]
  %20 = load i32, i32* %2, align 4, !tbaa !5
  %21 = sub i32 %19, %20
  %22 = icmp sgt i32 %20, 0
  br i1 %22, label %23, label %33

23:                                               ; preds = %18
  %24 = sext i32 %21 to i64
  %25 = sext i32 %19 to i64
  br label %26

26:                                               ; preds = %26, %23
  %27 = phi i64 [ %24, %23 ], [ %28, %26 ]
  %28 = add nsw i64 %27, 1
  %29 = getelementptr inbounds [10000 x i32], [10000 x i32]* %3, i64 0, i64 %28
  %30 = load i32, i32* %29, align 4, !tbaa !5
  %31 = call i32 (i8*, ...) @printf(i8* nonnull dereferenceable(1) getelementptr inbounds ([4 x i8], [4 x i8]* @.str.2, i64 0, i64 0), i32 %30) #3
  %32 = icmp slt i64 %28, %25
  br i1 %32, label %26, label %33, !llvm.loop !11

33:                                               ; preds = %26, %18
  %34 = getelementptr inbounds [10000 x i32], [10000 x i32]* %3, i64 0, i64 1
  %35 = load i32, i32* %34, align 4, !tbaa !5
  %36 = call i32 (i8*, ...) @printf(i8* nonnull dereferenceable(1) getelementptr inbounds ([3 x i8], [3 x i8]* @.str.1, i64 0, i64 0), i32 %35) #3
  %37 = icmp slt i32 %21, 2
  br i1 %37, label %49, label %38

38:                                               ; preds = %33
  %39 = add i32 %19, 1
  %40 = sub i32 %39, %20
  %41 = zext i32 %40 to i64
  br label %42

42:                                               ; preds = %42, %38
  %43 = phi i64 [ 2, %38 ], [ %47, %42 ]
  %44 = getelementptr inbounds [10000 x i32], [10000 x i32]* %3, i64 0, i64 %43
  %45 = load i32, i32* %44, align 4, !tbaa !5
  %46 = call i32 (i8*, ...) @printf(i8* nonnull dereferenceable(1) getelementptr inbounds ([4 x i8], [4 x i8]* @.str.3, i64 0, i64 0), i32 %45) #3
  %47 = add nuw nsw i64 %43, 1
  %48 = icmp eq i64 %47, %41
  br i1 %48, label %49, label %42, !llvm.loop !12

49:                                               ; preds = %42, %33
  call void @llvm.lifetime.end.p0i8(i64 40000, i8* nonnull %6) #3
  call void @llvm.lifetime.end.p0i8(i64 4, i8* nonnull %5) #3
  call void @llvm.lifetime.end.p0i8(i64 4, i8* nonnull %4) #3
  ret i32 0
}

; Function Attrs: argmemonly mustprogress nofree nosync nounwind willreturn
declare void @llvm.lifetime.start.p0i8(i64 immarg, i8* nocapture) #1

; Function Attrs: nofree nounwind
declare noundef i32 @__isoc99_scanf(i8* nocapture noundef readonly, ...) local_unnamed_addr #2

; Function Attrs: nofree nounwind sspstrong uwtable
define dso_local void @order(i32 %0, i32 %1, i32* nocapture readonly %2) local_unnamed_addr #0 {
  %4 = sub i32 %0, %1
  %5 = icmp sgt i32 %1, 0
  br i1 %5, label %6, label %16

6:                                                ; preds = %3
  %7 = sext i32 %4 to i64
  %8 = sext i32 %0 to i64
  br label %9

9:                                                ; preds = %6, %9
  %10 = phi i64 [ %7, %6 ], [ %11, %9 ]
  %11 = add nsw i64 %10, 1
  %12 = getelementptr inbounds i32, i32* %2, i64 %11
  %13 = load i32, i32* %12, align 4, !tbaa !5
  %14 = tail call i32 (i8*, ...) @printf(i8* nonnull dereferenceable(1) getelementptr inbounds ([4 x i8], [4 x i8]* @.str.2, i64 0, i64 0), i32 %13)
  %15 = icmp slt i64 %11, %8
  br i1 %15, label %9, label %16, !llvm.loop !11

16:                                               ; preds = %9, %3
  %17 = getelementptr inbounds i32, i32* %2, i64 1
  %18 = load i32, i32* %17, align 4, !tbaa !5
  %19 = tail call i32 (i8*, ...) @printf(i8* nonnull dereferenceable(1) getelementptr inbounds ([3 x i8], [3 x i8]* @.str.1, i64 0, i64 0), i32 %18)
  %20 = icmp slt i32 %4, 2
  br i1 %20, label %32, label %21

21:                                               ; preds = %16
  %22 = add i32 %0, 1
  %23 = sub i32 %22, %1
  %24 = zext i32 %23 to i64
  br label %25

25:                                               ; preds = %21, %25
  %26 = phi i64 [ 2, %21 ], [ %30, %25 ]
  %27 = getelementptr inbounds i32, i32* %2, i64 %26
  %28 = load i32, i32* %27, align 4, !tbaa !5
  %29 = tail call i32 (i8*, ...) @printf(i8* nonnull dereferenceable(1) getelementptr inbounds ([4 x i8], [4 x i8]* @.str.3, i64 0, i64 0), i32 %28)
  %30 = add nuw nsw i64 %26, 1
  %31 = icmp eq i64 %30, %24
  br i1 %31, label %32, label %25, !llvm.loop !12

32:                                               ; preds = %25, %16
  ret void
}

; Function Attrs: argmemonly mustprogress nofree nosync nounwind willreturn
declare void @llvm.lifetime.end.p0i8(i64 immarg, i8* nocapture) #1

; Function Attrs: nofree nounwind
declare noundef i32 @printf(i8* nocapture noundef readonly, ...) local_unnamed_addr #2


!llvm.module.flags = !{!0, !1, !2, !3}
!llvm.ident = !{!4}

!0 = !{i32 1, !"wchar_size", i32 4}
!1 = !{i32 7, !"PIC Level", i32 2}
!2 = !{i32 7, !"PIE Level", i32 2}
!3 = !{i32 7, !"uwtable", i32 1}
!4 = !{!"clang version 13.0.0"}
!5 = !{!6, !6, i64 0}
!6 = !{!"int", !7, i64 0}
!7 = !{!"omnipotent char", !8, i64 0}
!8 = !{!"Simple C/C++ TBAA"}
!9 = distinct !{!9, !10}
!10 = !{!"llvm.loop.mustprogress"}
!11 = distinct !{!11, !10}
!12 = distinct !{!12, !10}
